target datalayout = "e-m:e-p270:32:32-p271:32:32-p272:64:64-i64:64-i128:128-f80:128-n8:16:32:64-S128"
target triple = "x86_64-pc-linux-gnu"

%struct.timeval = type { i64, i64 }

@.str.9 = private unnamed_addr constant [45 x i8] c"fsync() error writing %s state save file: %m\00", align 1
@.str.10 = private unnamed_addr constant [22 x i8] c"fsync_and_close:fsync\00", align 1
@.str.11 = private unnamed_addr constant [41 x i8] c"close () error on %s state save file: %m\00", align 1
@.str.12 = private unnamed_addr constant [22 x i8] c"fsync_and_close:close\00", align 1

; Function Attrs: nounwind uwtable
define dso_local i32 @fsync_and_close(i32 noundef %0, ptr noundef %1) #0 {
  %3 = alloca i32, align 4
  %4 = alloca ptr, align 8
  %5 = alloca i32, align 4
  %6 = alloca i32, align 4
  %7 = alloca i32, align 4
  %8 = alloca %struct.timeval, align 8
  %9 = alloca %struct.timeval, align 8
  %10 = alloca [20 x i8], align 16
  %11 = alloca i64, align 8
  store i32 %0, ptr %3, align 4
  store ptr %1, ptr %4, align 8
  call void @llvm.lifetime.start.p0(i64 4, ptr %5) #10
  store i32 0, ptr %5, align 4
  call void @llvm.lifetime.start.p0(i64 4, ptr %6) #10
  call void @llvm.lifetime.start.p0(i64 4, ptr %7) #10
  call void @llvm.lifetime.start.p0(i64 16, ptr %8) #10
  call void @llvm.lifetime.start.p0(i64 16, ptr %9) #10
  call void @llvm.lifetime.start.p0(i64 20, ptr %10) #10
  call void @llvm.memset.p0.i64(ptr align 16 %10, i8 0, i64 20, i1 false)
  call void @llvm.lifetime.start.p0(i64 8, ptr %11) #10
  %12 = call i32 @gettimeofday(ptr noundef %8, ptr noundef null) #10
  store i32 1, ptr %6, align 4
  store i32 1, ptr %7, align 4
  br label %13

13:                                               ; preds = %34, %2
  %14 = load i32, ptr %6, align 4
  %15 = icmp ne i32 %14, 0
  br i1 %15, label %16, label %19

16:                                               ; preds = %13
  %17 = load i32, ptr %7, align 4
  %18 = icmp slt i32 %17, 4
  br label %19

19:                                               ; preds = %16, %13
  %20 = phi i1 [ false, %13 ], [ %18, %16 ]
  br i1 %20, label %21, label %37

21:                                               ; preds = %19
  %22 = load i32, ptr %3, align 4
  %23 = call i32 @fsync(i32 noundef %22)
  store i32 %23, ptr %6, align 4
  %24 = load i32, ptr %6, align 4
  %25 = icmp ne i32 %24, 0
  br i1 %25, label %26, label %33

26:                                               ; preds = %21
  %27 = call ptr @__errno_location() #12
  %28 = load i32, ptr %27, align 4
  %29 = icmp ne i32 %28, 4
  br i1 %29, label %30, label %33

30:                                               ; preds = %26
  %31 = load ptr, ptr %4, align 8
  %32 = call i32 (ptr, ...) @error(ptr noundef @.str.9, ptr noundef %31)
  br label %33

33:                                               ; preds = %30, %26, %21
  br label %34

34:                                               ; preds = %33
  %35 = load i32, ptr %7, align 4
  %36 = add nsw i32 %35, 1
  store i32 %36, ptr %7, align 4
  br label %13, !llvm.loop !17

37:                                               ; preds = %19
  br label %38

38:                                               ; preds = %37
  %39 = call i32 @gettimeofday(ptr noundef %9, ptr noundef null) #10
  %40 = getelementptr inbounds [20 x i8], ptr %10, i64 0, i64 0
  call void @slurm_diff_tv_str(ptr noundef %8, ptr noundef %9, ptr noundef %40, i32 noundef 20, ptr noundef @.str.10, i64 noundef 0, ptr noundef %11)
  br label %41

41:                                               ; preds = %38
  br label %42

42:                                               ; preds = %41
  %43 = load i32, ptr %6, align 4
  %44 = icmp ne i32 %43, 0
  br i1 %44, label %45, label %47

45:                                               ; preds = %42
  %46 = load i32, ptr %6, align 4
  store i32 %46, ptr %5, align 4
  br label %47

47:                                               ; preds = %45, %42
  %48 = call i32 @gettimeofday(ptr noundef %8, ptr noundef null) #10
  store i32 1, ptr %6, align 4
  store i32 1, ptr %7, align 4
  br label %49

49:                                               ; preds = %70, %47
  %50 = load i32, ptr %6, align 4
  %51 = icmp ne i32 %50, 0
  br i1 %51, label %52, label %55

52:                                               ; preds = %49
  %53 = load i32, ptr %7, align 4
  %54 = icmp slt i32 %53, 4
  br label %55

55:                                               ; preds = %52, %49
  %56 = phi i1 [ false, %49 ], [ %54, %52 ]
  br i1 %56, label %57, label %73

57:                                               ; preds = %55
  %58 = load i32, ptr %3, align 4
  %59 = call i32 @close(i32 noundef %58)
  store i32 %59, ptr %6, align 4
  %60 = load i32, ptr %6, align 4
  %61 = icmp ne i32 %60, 0
  br i1 %61, label %62, label %69

62:                                               ; preds = %57
  %63 = call ptr @__errno_location() #12
  %64 = load i32, ptr %63, align 4
  %65 = icmp ne i32 %64, 4
  br i1 %65, label %66, label %69

66:                                               ; preds = %62
  %67 = load ptr, ptr %4, align 8
  %68 = call i32 (ptr, ...) @error(ptr noundef @.str.11, ptr noundef %67)
  br label %69

69:                                               ; preds = %66, %62, %57
  br label %70

70:                                               ; preds = %69
  %71 = load i32, ptr %7, align 4
  %72 = add nsw i32 %71, 1
  store i32 %72, ptr %7, align 4
  br label %49, !llvm.loop !18

73:                                               ; preds = %55
  br label %74

74:                                               ; preds = %73
  %75 = call i32 @gettimeofday(ptr noundef %9, ptr noundef null) #10
  %76 = getelementptr inbounds [20 x i8], ptr %10, i64 0, i64 0
  call void @slurm_diff_tv_str(ptr noundef %8, ptr noundef %9, ptr noundef %76, i32 noundef 20, ptr noundef @.str.12, i64 noundef 0, ptr noundef %11)
  br label %77

77:                                               ; preds = %74
  br label %78

78:                                               ; preds = %77
  %79 = load i32, ptr %6, align 4
  %80 = icmp ne i32 %79, 0
  br i1 %80, label %81, label %83

81:                                               ; preds = %78
  %82 = load i32, ptr %6, align 4
  store i32 %82, ptr %5, align 4
  br label %83

83:                                               ; preds = %81, %78
  %84 = load i32, ptr %5, align 4
  call void @llvm.lifetime.end.p0(i64 8, ptr %11) #10
  call void @llvm.lifetime.end.p0(i64 20, ptr %10) #10
  call void @llvm.lifetime.end.p0(i64 16, ptr %9) #10
  call void @llvm.lifetime.end.p0(i64 16, ptr %8) #10
  call void @llvm.lifetime.end.p0(i64 4, ptr %7) #10
  call void @llvm.lifetime.end.p0(i64 4, ptr %6) #10
  call void @llvm.lifetime.end.p0(i64 4, ptr %5) #10
  ret i32 %84
}