; Function Attrs: nounwind uwtable
define dso_local i32 @fsync_and_close(i32 noundef %0, ptr noundef %1) local_unnamed_addr #0 {
  %3 = alloca %struct.timeval, align 8
  %4 = alloca %struct.timeval, align 8
  %5 = alloca [20 x i8], align 16
  %6 = alloca i64, align 8
  call void @llvm.lifetime.start.p0(i64 16, ptr nonnull %3) #10
  call void @llvm.lifetime.start.p0(i64 16, ptr nonnull %4) #10
  call void @llvm.lifetime.start.p0(i64 20, ptr nonnull %5) #10
  call void @llvm.memset.p0.i64(ptr noundef nonnull align 16 dereferenceable(20) %5, i8 0, i64 20, i1 false)
  call void @llvm.lifetime.start.p0(i64 8, ptr nonnull %6) #10
  %7 = call i32 @gettimeofday(ptr noundef nonnull %3, ptr noundef null) #10
  br label %8

8:                                                ; preds = %2, %15
  %.024 = phi i32 [ 1, %2 ], [ %16, %15 ]
  %9 = tail call i32 @fsync(i32 noundef %0) #10
  %.not21 = icmp eq i32 %9, 0
  br i1 %.not21, label %.thread, label %10

10:                                               ; preds = %8
  %11 = tail call ptr @__errno_location() #11
  %12 = load i32, ptr %11, align 4
  %.not22 = icmp eq i32 %12, 4
  br i1 %.not22, label %15, label %13

13:                                               ; preds = %10
  %14 = tail call i32 (ptr, ...) @error(ptr noundef nonnull @.str.9, ptr noundef %1) #10
  br label %15

15:                                               ; preds = %10, %13
  %16 = add nuw nsw i32 %.024, 1
  %17 = icmp samesign ult i32 %.024, 3
  br i1 %17, label %8, label %.thread, !llvm.loop !15

.thread:                                          ; preds = %8, %15
  %18 = call i32 @gettimeofday(ptr noundef nonnull %4, ptr noundef null) #10
  call void @slurm_diff_tv_str(ptr noundef nonnull %3, ptr noundef nonnull %4, ptr noundef nonnull %5, i32 noundef 20, ptr noundef nonnull @.str.10, i64 noundef 0, ptr noundef nonnull %6) #10
  %19 = call i32 @gettimeofday(ptr noundef nonnull %3, ptr noundef null) #10
  br label %20

20:                                               ; preds = %.thread, %27
  %.125 = phi i32 [ 1, %.thread ], [ %28, %27 ]
  %21 = call i32 @close(i32 noundef %0) #10
  %.not.not = icmp eq i32 %21, 0
  br i1 %.not.not, label %.thread28, label %22

22:                                               ; preds = %20
  %23 = tail call ptr @__errno_location() #11
  %24 = load i32, ptr %23, align 4
  %.not20 = icmp eq i32 %24, 4
  br i1 %.not20, label %27, label %25

25:                                               ; preds = %22
  %26 = call i32 (ptr, ...) @error(ptr noundef nonnull @.str.11, ptr noundef %1) #10
  br label %27

27:                                               ; preds = %22, %25
  %28 = add nuw nsw i32 %.125, 1
  %29 = icmp samesign ult i32 %.125, 3
  br i1 %29, label %20, label %.thread28, !llvm.loop !16

.thread28:                                        ; preds = %20, %27
  %spec.select = phi i32 [ %21, %27 ], [ %9, %20 ]
  %30 = call i32 @gettimeofday(ptr noundef nonnull %4, ptr noundef null) #10
  call void @slurm_diff_tv_str(ptr noundef nonnull %3, ptr noundef nonnull %4, ptr noundef nonnull %5, i32 noundef 20, ptr noundef nonnull @.str.12, i64 noundef 0, ptr noundef nonnull %6) #10
  call void @llvm.lifetime.end.p0(i64 8, ptr nonnull %6) #10
  call void @llvm.lifetime.end.p0(i64 20, ptr nonnull %5) #10
  call void @llvm.lifetime.end.p0(i64 16, ptr nonnull %4) #10
  call void @llvm.lifetime.end.p0(i64 16, ptr nonnull %3) #10
  ret i32 %spec.select
}